; ModuleID = 'source-C-CXX/28/919.c'
source_filename = "source-C-CXX/28/919.c"
target datalayout = "e-m:e-p270:32:32-p271:32:32-p272:64:64-i64:64-f80:128-n8:16:32:64-S128"
target triple = "x86_64-pc-linux-gnu"

@.str = private unnamed_addr constant [7 x i8] c"%.3lf\0A\00", align 1
@.str.1 = private unnamed_addr constant [3 x i8] c"%d\00", align 1

; Function Attrs: nofree nounwind sspstrong uwtable
define dso_local void @deal(i32 %0) local_unnamed_addr #0 {
  %2 = icmp sgt i32 %0, 0
  br i1 %2, label %3, label %30

3:                                                ; preds = %1
  %4 = and i32 %0, 1
  %5 = icmp eq i32 %0, 1
  br i1 %5, label %21, label %6

6:                                                ; preds = %3
  %7 = and i32 %0, -2
  br label %8

8:                                                ; preds = %8, %6
  %9 = phi double [ 2.000000e+00, %6 ], [ %18, %8 ]
  %10 = phi double [ 0.000000e+00, %6 ], [ %17, %8 ]
  %11 = phi double [ 1.000000e+00, %6 ], [ %15, %8 ]
  %12 = phi i32 [ %7, %6 ], [ %19, %8 ]
  %13 = fdiv double %9, %11
  %14 = fadd double %10, %13
  %15 = fadd double %11, %9
  %16 = fdiv double %15, %9
  %17 = fadd double %14, %16
  %18 = fadd double %9, %15
  %19 = add i32 %12, -2
  %20 = icmp eq i32 %19, 0
  br i1 %20, label %21, label %8, !llvm.loop !5

21:                                               ; preds = %8, %3
  %22 = phi double [ undef, %3 ], [ %17, %8 ]
  %23 = phi double [ 2.000000e+00, %3 ], [ %18, %8 ]
  %24 = phi double [ 0.000000e+00, %3 ], [ %17, %8 ]
  %25 = phi double [ 1.000000e+00, %3 ], [ %15, %8 ]
  %26 = icmp eq i32 %4, 0
  br i1 %26, label %30, label %27

27:                                               ; preds = %21
  %28 = fdiv double %23, %25
  %29 = fadd double %24, %28
  br label %30

30:                                               ; preds = %27, %21, %1
  %31 = phi double [ 0.000000e+00, %1 ], [ %22, %21 ], [ %29, %27 ]
  %32 = tail call i32 (i8*, ...) @printf(i8* nonnull dereferenceable(1) getelementptr inbounds ([7 x i8], [7 x i8]* @.str, i64 0, i64 0), double %31)
  ret void
}

; Function Attrs: argmemonly mustprogress nofree nosync nounwind willreturn
declare void @llvm.lifetime.start.p0i8(i64 immarg, i8* nocapture) #1

; Function Attrs: argmemonly mustprogress nofree nosync nounwind willreturn
declare void @llvm.lifetime.end.p0i8(i64 immarg, i8* nocapture) #1

; Function Attrs: nofree nounwind
declare noundef i32 @printf(i8* nocapture noundef readonly, ...) local_unnamed_addr #2

; Function Attrs: nofree nounwind sspstrong uwtable
define dso_local i32 @main() local_unnamed_addr #0 {
  %1 = alloca i32, align 4
  %2 = alloca i32, align 4
  %3 = bitcast i32* %1 to i8*
  call void @llvm.lifetime.start.p0i8(i64 4, i8* nonnull %3) #3
  %4 = call i32 (i8*, ...) @__isoc99_scanf(i8* getelementptr inbounds ([3 x i8], [3 x i8]* @.str.1, i64 0, i64 0), i32* nonnull %1)
  %5 = bitcast i32* %2 to i8*
  %6 = load i32, i32* %1, align 4, !tbaa !7
  %7 = icmp sgt i32 %6, 0
  br i1 %7, label %8, label %46

8:                                                ; preds = %0, %40
  %9 = phi i32 [ %43, %40 ], [ 0, %0 ]
  call void @llvm.lifetime.start.p0i8(i64 4, i8* nonnull %5) #3
  %10 = call i32 (i8*, ...) @__isoc99_scanf(i8* getelementptr inbounds ([3 x i8], [3 x i8]* @.str.1, i64 0, i64 0), i32* nonnull %2)
  %11 = load i32, i32* %2, align 4, !tbaa !7
  %12 = icmp sgt i32 %11, 0
  br i1 %12, label %13, label %40

13:                                               ; preds = %8
  %14 = and i32 %11, 1
  %15 = icmp eq i32 %11, 1
  br i1 %15, label %31, label %16

16:                                               ; preds = %13
  %17 = and i32 %11, -2
  br label %18

18:                                               ; preds = %18, %16
  %19 = phi double [ 2.000000e+00, %16 ], [ %28, %18 ]
  %20 = phi double [ 0.000000e+00, %16 ], [ %27, %18 ]
  %21 = phi double [ 1.000000e+00, %16 ], [ %25, %18 ]
  %22 = phi i32 [ %17, %16 ], [ %29, %18 ]
  %23 = fdiv double %19, %21
  %24 = fadd double %20, %23
  %25 = fadd double %19, %21
  %26 = fdiv double %25, %19
  %27 = fadd double %24, %26
  %28 = fadd double %25, %19
  %29 = add i32 %22, -2
  %30 = icmp eq i32 %29, 0
  br i1 %30, label %31, label %18, !llvm.loop !5

31:                                               ; preds = %18, %13
  %32 = phi double [ undef, %13 ], [ %27, %18 ]
  %33 = phi double [ 2.000000e+00, %13 ], [ %28, %18 ]
  %34 = phi double [ 0.000000e+00, %13 ], [ %27, %18 ]
  %35 = phi double [ 1.000000e+00, %13 ], [ %25, %18 ]
  %36 = icmp eq i32 %14, 0
  br i1 %36, label %40, label %37

37:                                               ; preds = %31
  %38 = fdiv double %33, %35
  %39 = fadd double %34, %38
  br label %40

40:                                               ; preds = %37, %31, %8
  %41 = phi double [ 0.000000e+00, %8 ], [ %32, %31 ], [ %39, %37 ]
  %42 = call i32 (i8*, ...) @printf(i8* nonnull dereferenceable(1) getelementptr inbounds ([7 x i8], [7 x i8]* @.str, i64 0, i64 0), double %41) #3
  call void @llvm.lifetime.end.p0i8(i64 4, i8* nonnull %5) #3
  %43 = add nuw nsw i32 %9, 1
  %44 = load i32, i32* %1, align 4, !tbaa !7
  %45 = icmp slt i32 %43, %44
  br i1 %45, label %8, label %46, !llvm.loop !11

46:                                               ; preds = %40, %0
  call void @llvm.lifetime.end.p0i8(i64 4, i8* nonnull %3) #3
  ret i32 0
}

; Function Attrs: nofree nounwind
declare noundef i32 @__isoc99_scanf(i8* nocapture noundef readonly, ...) local_unnamed_addr #2


!llvm.module.flags = !{!0, !1, !2, !3}
!llvm.ident = !{!4}

!0 = !{i32 1, !"wchar_size", i32 4}
!1 = !{i32 7, !"PIC Level", i32 2}
!2 = !{i32 7, !"PIE Level", i32 2}
!3 = !{i32 7, !"uwtable", i32 1}
!4 = !{!"clang version 13.0.0"}
!5 = distinct !{!5, !6}
!6 = !{!"llvm.loop.mustprogress"}
!7 = !{!8, !8, i64 0}
!8 = !{!"int", !9, i64 0}
!9 = !{!"omnipotent char", !10, i64 0}
!10 = !{!"Simple C/C++ TBAA"}
!11 = distinct !{!11, !6}
